; Function Attrs: nounwind uwtable
define internal void @hookf(ptr noundef %0, ptr noundef readonly captures(none) %1) #0 {
  %3 = getelementptr inbounds nuw i8, ptr %0, i64 40
  %4 = load ptr, ptr %3, align 8, !tbaa !4
  %5 = getelementptr inbounds nuw i8, ptr %4, i64 8
  store ptr %5, ptr %3, align 8, !tbaa !4
  store i64 -9223372036854775704, ptr %4, align 8, !tbaa !15
  tail call void @lua_rawget(ptr noundef %0, i32 noundef -10000) #10
  %6 = tail call i32 @lua_type(ptr noundef %0, i32 noundef -1) #10
  %7 = icmp eq i32 %6, 6
  br i1 %7, label %8, label %20

8:                                                ; preds = %2
  %9 = load i32, ptr %1, align 8, !tbaa !39
  %10 = sext i32 %9 to i64
  %11 = getelementptr inbounds [5 x ptr], ptr @hookf.hooknames, i64 0, i64 %10
  %12 = load ptr, ptr %11, align 8, !tbaa !41
  tail call void @lua_pushstring(ptr noundef nonnull %0, ptr noundef %12) #10
  %13 = getelementptr inbounds nuw i8, ptr %1, i64 40
  %14 = load i32, ptr %13, align 8, !tbaa !42
  %15 = icmp sgt i32 %14, -1
  br i1 %15, label %16, label %18

16:                                               ; preds = %8
  %17 = zext nneg i32 %14 to i64
  tail call void @lua_pushinteger(ptr noundef nonnull %0, i64 noundef %17) #10
  br label %19

18:                                               ; preds = %8
  tail call void @lua_pushnil(ptr noundef nonnull %0) #10
  br label %19

19:                                               ; preds = %18, %16
  tail call void @lua_call(ptr noundef nonnull %0, i32 noundef 2, i32 noundef 0) #10
  br label %20

20:                                               ; preds = %19, %2
  ret void
}